target datalayout = "e-m:e-p270:32:32-p271:32:32-p272:64:64-i64:64-i128:128-f80:128-n8:16:32:64-S128"
target triple = "x86_64-pc-linux-gnu"

%struct.lua_Debug = type { ptr, ptr, ptr, ptr, i32, i32, i8, i8, i8, ptr, [256 x i8] }
%class.anon.608 = type { i8 }

@.str.288 = private unnamed_addr constant [2 x i8] c"f\00", align 1

; Function Attrs: mustprogress uwtable
define internal noundef i32 @"_ZZZL20DOCTEST_ANON_FUNC_78vENK3$_0clEP9lua_StateENKUlS1_E_clES1_"(ptr noundef nonnull align 1 dereferenceable(1) %0, ptr noundef %1) #4 align 2 {
  %3 = alloca ptr, align 8
  %4 = alloca ptr, align 8
  %5 = alloca i32, align 4
  %6 = alloca i8, align 1
  %7 = alloca %struct.lua_Debug, align 8
  store ptr %0, ptr %3, align 8
  store ptr %1, ptr %4, align 8
  %8 = load ptr, ptr %4, align 8
  %9 = call noundef i32 @_Z17luaL_checkintegerP9lua_Statei(ptr noundef %8, i32 noundef 1)
  store i32 %9, ptr %5, align 4
  %10 = load ptr, ptr %4, align 8
  %11 = call noundef i32 @_Z15luaL_optbooleanP9lua_Stateii(ptr noundef %10, i32 noundef 2, i32 noundef 1)
  %12 = icmp ne i32 %11, 0
  %13 = zext i1 %12 to i8
  store i8 %13, ptr %6, align 1
  call void @llvm.memset.p0.i64(ptr align 8 %7, i8 0, i64 312, i1 false)
  %14 = load ptr, ptr %4, align 8
  %15 = load ptr, ptr %4, align 8
  %16 = call noundef i32 @_Z14lua_stackdepthP9lua_State(ptr noundef %15)
  %17 = sub nsw i32 %16, 1
  %18 = call noundef i32 @_Z11lua_getinfoP9lua_StateiPKcP9lua_Debug(ptr noundef %14, i32 noundef %17, ptr noundef @.str.288, ptr noundef %7)
  %19 = load ptr, ptr %4, align 8
  %20 = load i32, ptr %5, align 4
  %21 = load i8, ptr %6, align 1
  %22 = trunc i8 %21 to i1
  %23 = zext i1 %22 to i32
  %24 = call noundef i32 @_Z14lua_breakpointP9lua_Stateiii(ptr noundef %19, i32 noundef -1, i32 noundef %20, i32 noundef %23)
  ret i32 0
}

; Function Attrs: mustprogress uwtable
define internal noundef i32 @"_ZZZL20DOCTEST_ANON_FUNC_78vENK3$_0clEP9lua_StateENUlS1_E_8__invokeES1_"(ptr noundef %0) #4 align 2 {
  %2 = alloca ptr, align 8
  %3 = alloca %class.anon.608, align 1
  store ptr %0, ptr %2, align 8
  %4 = load ptr, ptr %2, align 8
  %5 = call noundef i32 @"_ZZZL20DOCTEST_ANON_FUNC_78vENK3$_0clEP9lua_StateENKUlS1_E_clES1_"(ptr noundef nonnull align 1 dereferenceable(1) %3, ptr noundef %4)
  ret i32 %5
}