; Function Attrs: mustprogress uwtable
define internal noundef i32 @"_ZZZL20DOCTEST_ANON_FUNC_78vENK3$_0clEP9lua_StateENUlS1_E_8__invokeES1_"(ptr noundef %0) #4 align 2 {
  %2 = alloca %struct.lua_Debug, align 8
  call void @llvm.lifetime.start.p0(i64 312, ptr nonnull %2)
  %3 = tail call noundef i32 @_Z17luaL_checkintegerP9lua_Statei(ptr noundef %0, i32 noundef 1)
  %4 = tail call noundef i32 @_Z15luaL_optbooleanP9lua_Stateii(ptr noundef %0, i32 noundef 2, i32 noundef 1)
  %5 = icmp ne i32 %4, 0
  call void @llvm.memset.p0.i64(ptr noundef nonnull align 8 dereferenceable(312) %2, i8 0, i64 312, i1 false)
  %6 = tail call noundef i32 @_Z14lua_stackdepthP9lua_State(ptr noundef %0)
  %7 = add nsw i32 %6, -1
  %8 = call noundef i32 @_Z11lua_getinfoP9lua_StateiPKcP9lua_Debug(ptr noundef %0, i32 noundef %7, ptr noundef nonnull @.str.288, ptr noundef nonnull %2)
  %9 = zext i1 %5 to i32
  %10 = call noundef i32 @_Z14lua_breakpointP9lua_Stateiii(ptr noundef %0, i32 noundef -1, i32 noundef %3, i32 noundef %9)
  call void @llvm.lifetime.end.p0(i64 312, ptr nonnull %2)
  ret i32 0
}